(dp0
I1
cnumpy.core.multiarray
_reconstruct
p1
(cnumpy
ndarray
p2
(I0
tp3
S'b'
p4
tp5
Rp6
(I1
(L1L
tp7
cnumpy
dtype
p8
(S'O8'
p9
I0
I1
tp10
Rp11
(I3
S'|'
p12
NNNI-1
I-1
I63
tp13
bI00
(lp14
S'System 2'
p15
atp16
bsI2
g1
(g2
(I0
tp17
g4
tp18
Rp19
(I1
(L2L
tp20
g11
I00
(lp21
g15
aS'System 4'
p22
atp23
bsI3
g1
(g2
(I0
tp24
g4
tp25
Rp26
(I1
(L2L
tp27
g11
I00
(lp28
g15
ag22
atp29
bsI4
g1
(g2
(I0
tp30
g4
tp31
Rp32
(I1
(L2L
tp33
g11
I00
(lp34
g15
ag22
atp35
bsI5
g1
(g2
(I0
tp36
g4
tp37
Rp38
(I1
(L3L
tp39
g11
I00
(lp40
g15
ag22
aS'System 1'
p41
atp42
bsI6
g1
(g2
(I0
tp43
g4
tp44
Rp45
(I1
(L3L
tp46
g11
I00
(lp47
g15
ag22
ag41
atp48
bsI7
g1
(g2
(I0
tp49
g4
tp50
Rp51
(I1
(L3L
tp52
g11
I00
(lp53
g15
ag22
ag41
atp54
bsI8
g1
(g2
(I0
tp55
g4
tp56
Rp57
(I1
(L4L
tp58
g11
I00
(lp59
g15
ag22
aS'System 5'
p60
ag41
atp61
bsI9
g1
(g2
(I0
tp62
g4
tp63
Rp64
(I1
(L4L
tp65
g11
I00
(lp66
g15
ag22
ag60
ag41
atp67
bsI10
g1
(g2
(I0
tp68
g4
tp69
Rp70
(I1
(L5L
tp71
g11
I00
(lp72
g15
aS'System 12'
p73
ag22
ag60
ag41
atp74
bsI11
g1
(g2
(I0
tp75
g4
tp76
Rp77
(I1
(L5L
tp78
g11
I00
(lp79
g15
ag73
ag22
ag60
ag41
atp80
bsI12
g1
(g2
(I0
tp81
g4
tp82
Rp83
(I1
(L6L
tp84
g11
I00
(lp85
g15
ag73
aS'System 13'
p86
ag22
ag60
ag41
atp87
bsI13
g1
(g2
(I0
tp88
g4
tp89
Rp90
(I1
(L7L
tp91
g11
I00
(lp92
g15
ag73
ag86
aS'System 18'
p93
ag22
ag60
ag41
atp94
bsI14
g1
(g2
(I0
tp95
g4
tp96
Rp97
(I1
(L7L
tp98
g11
I00
(lp99
g15
ag73
ag86
ag93
ag22
ag60
ag41
atp100
bsI15
g1
(g2
(I0
tp101
g4
tp102
Rp103
(I1
(L8L
tp104
g11
I00
(lp105
g15
ag73
ag86
ag93
ag22
ag60
aS'System 6'
p106
ag41
atp107
bsI16
g1
(g2
(I0
tp108
g4
tp109
Rp110
(I1
(L9L
tp111
g11
I00
(lp112
g15
ag73
ag86
ag93
aS'System 37'
p113
ag22
ag60
ag106
ag41
atp114
bsI17
g1
(g2
(I0
tp115
g4
tp116
Rp117
(I1
(L10L
tp118
g11
I00
(lp119
g15
ag73
ag86
ag93
ag113
ag22
ag60
ag106
aS'System 7'
p120
ag41
atp121
bsI18
g1
(g2
(I0
tp122
g4
tp123
Rp124
(I1
(L10L
tp125
g11
I00
(lp126
g15
ag73
ag86
ag93
ag113
ag22
ag60
ag106
ag120
ag41
atp127
bsI19
g1
(g2
(I0
tp128
g4
tp129
Rp130
(I1
(L11L
tp131
g11
I00
(lp132
g15
ag73
ag86
ag93
ag113
aS'System 38'
p133
ag22
ag60
ag106
ag120
ag41
atp134
bsI20
g1
(g2
(I0
tp135
g4
tp136
Rp137
(I1
(L12L
tp138
g11
I00
(lp139
g15
ag73
ag86
ag93
ag113
ag133
aS'System 39'
p140
ag22
ag60
ag106
ag120
ag41
atp141
bsI21
g1
(g2
(I0
tp142
g4
tp143
Rp144
(I1
(L12L
tp145
g11
I00
(lp146
g15
ag73
ag86
ag93
ag113
ag133
ag140
ag22
ag60
ag106
ag120
ag41
atp147
bsI22
g1
(g2
(I0
tp148
g4
tp149
Rp150
(I1
(L12L
tp151
g11
I00
(lp152
g15
ag73
ag86
ag93
ag113
ag133
ag140
ag22
ag60
ag106
ag120
ag41
atp153
bsI23
g1
(g2
(I0
tp154
g4
tp155
Rp156
(I1
(L13L
tp157
g11
I00
(lp158
g15
ag73
ag86
ag93
ag113
ag133
ag140
aS'System 45'
p159
ag22
ag60
ag106
ag120
ag41
atp160
bsI24
g1
(g2
(I0
tp161
g4
tp162
Rp163
(I1
(L13L
tp164
g11
I00
(lp165
g15
ag73
ag86
ag93
ag113
ag133
ag140
ag159
ag22
ag60
ag106
ag120
ag41
atp166
bsI25
g1
(g2
(I0
tp167
g4
tp168
Rp169
(I1
(L13L
tp170
g11
I00
(lp171
g15
ag73
ag86
ag93
ag113
ag133
ag140
ag159
ag22
ag60
ag106
ag120
ag41
atp172
bsI26
g1
(g2
(I0
tp173
g4
tp174
Rp175
(I1
(L14L
tp176
g11
I00
(lp177
g15
ag73
ag86
ag93
ag113
ag133
ag140
ag159
aS'System 46'
p178
ag22
ag60
ag106
ag120
ag41
atp179
bsI27
g1
(g2
(I0
tp180
g4
tp181
Rp182
(I1
(L15L
tp183
g11
I00
(lp184
g15
ag73
ag86
ag93
ag113
ag133
ag140
ag159
ag178
ag22
ag60
ag106
ag120
aS'System 11'
p185
ag41
atp186
bsI28
g1
(g2
(I0
tp187
g4
tp188
Rp189
(I1
(L16L
tp190
g11
I00
(lp191
g15
ag73
ag86
ag93
ag113
ag133
ag140
ag159
ag178
aS'System 49'
p192
ag22
ag60
ag106
ag120
ag185
ag41
atp193
bsI29
g1
(g2
(I0
tp194
g4
tp195
Rp196
(I1
(L17L
tp197
g11
I00
(lp198
g15
ag73
ag86
ag93
ag113
ag133
ag140
ag159
ag178
ag192
aS'System 50'
p199
ag22
ag60
ag106
ag120
ag185
ag41
atp200
bsI30
g1
(g2
(I0
tp201
g4
tp202
Rp203
(I1
(L18L
tp204
g11
I00
(lp205
g15
ag73
ag86
ag93
ag113
ag133
ag140
ag159
ag178
ag192
ag199
aS'System 53'
p206
ag22
ag60
ag106
ag120
ag185
ag41
atp207
bsI31
g1
(g2
(I0
tp208
g4
tp209
Rp210
(I1
(L18L
tp211
g11
I00
(lp212
g15
ag73
ag86
ag93
ag113
ag133
ag140
ag159
ag178
ag192
ag199
ag206
ag22
ag60
ag106
ag120
ag185
ag41
atp213
bsI32
g1
(g2
(I0
tp214
g4
tp215
Rp216
(I1
(L19L
tp217
g11
I00
(lp218
g15
ag73
ag86
ag93
ag113
ag133
ag140
ag159
ag178
ag192
ag199
ag206
aS'System 54'
p219
ag22
ag60
ag106
ag120
ag185
ag41
atp220
bsI33
g1
(g2
(I0
tp221
g4
tp222
Rp223
(I1
(L20L
tp224
g11
I00
(lp225
g15
ag73
ag86
ag93
ag113
ag133
ag140
ag159
ag178
ag192
ag199
ag206
ag219
aS'System 56'
p226
ag22
ag60
ag106
ag120
ag185
ag41
atp227
bsI34
g1
(g2
(I0
tp228
g4
tp229
Rp230
(I1
(L21L
tp231
g11
I00
(lp232
g15
ag73
ag86
ag93
ag113
ag133
ag140
ag159
ag178
ag192
ag199
ag206
ag219
ag226
ag22
ag60
ag106
ag120
ag185
aS'System 14'
p233
ag41
atp234
bsI35
g1
(g2
(I0
tp235
g4
tp236
Rp237
(I1
(L22L
tp238
g11
I00
(lp239
g15
ag73
ag86
ag93
ag113
ag133
ag140
ag159
ag178
ag192
ag199
ag206
ag219
ag226
aS'System 68'
p240
ag22
ag60
ag106
ag120
ag185
ag233
ag41
atp241
bsI36
g1
(g2
(I0
tp242
g4
tp243
Rp244
(I1
(L23L
tp245
g11
I00
(lp246
g15
ag73
ag86
ag93
ag113
ag133
ag140
ag159
ag178
ag192
ag199
ag206
ag219
ag226
ag240
ag22
ag60
ag106
ag120
ag185
ag233
aS'System 19'
p247
ag41
atp248
bsI37
g1
(g2
(I0
tp249
g4
tp250
Rp251
(I1
(L23L
tp252
g11
I00
(lp253
g15
ag73
ag86
ag93
ag113
ag133
ag140
ag159
ag178
ag192
ag199
ag206
ag219
ag226
ag240
ag22
ag60
ag106
ag120
ag185
ag233
ag247
ag41
atp254
bsI38
g1
(g2
(I0
tp255
g4
tp256
Rp257
(I1
(L24L
tp258
g11
I00
(lp259
g15
ag73
ag86
ag93
ag113
ag133
ag140
ag159
ag178
ag192
ag199
ag206
ag219
ag226
ag240
aS'System 70'
p260
ag22
ag60
ag106
ag120
ag185
ag233
ag247
ag41
atp261
bs.